; Function Attrs: nounwind uwtable
define internal ptr @_testcapi_unstable_exc_prep_reraise_star(ptr readnone captures(none) %0, ptr noundef readonly captures(none) %1, i64 noundef %2) #0 {
  %or.cond = icmp eq i64 %2, 2
  br i1 %or.cond, label %6, label %4

4:                                                ; preds = %3
  %5 = tail call i32 @_PyArg_CheckPositional(ptr noundef nonnull @.str.19, i64 noundef %2, i64 noundef 2, i64 noundef 2) #8
  %.not = icmp eq i32 %5, 0
  br i1 %.not, label %11, label %6

6:                                                ; preds = %3, %4
  %7 = load ptr, ptr %1, align 8, !tbaa !3
  %8 = getelementptr i8, ptr %1, i64 8
  %9 = load ptr, ptr %8, align 8, !tbaa !3
  %10 = tail call ptr @PyUnstable_Exc_PrepReraiseStar(ptr noundef %7, ptr noundef %9) #8
  br label %11

11:                                               ; preds = %4, %6
  %.0 = phi ptr [ %10, %6 ], [ null, %4 ]
  ret ptr %.0
}